
SEM-karifa.elf:     file format elf32-avr

Sections:
Idx Name          Size      VMA       LMA       File off  Algn
  0 .text         0000042e  00000000  00000000  00000094  2**1
                  CONTENTS, ALLOC, LOAD, READONLY, CODE
  1 .data         00000014  00800060  0000042e  000004c2  2**0
                  CONTENTS, ALLOC, LOAD, DATA
  2 .bss          00000017  00800074  00800074  000004d6  2**0
                  ALLOC
  3 .comment      00000030  00000000  00000000  000004d6  2**0
                  CONTENTS, READONLY
  4 .note.gnu.avr.deviceinfo 0000003c  00000000  00000000  00000508  2**2
                  CONTENTS, READONLY
  5 .debug_info   00000420  00000000  00000000  00000544  2**0
                  CONTENTS, READONLY, DEBUGGING
  6 .debug_abbrev 000003e8  00000000  00000000  00000964  2**0
                  CONTENTS, READONLY, DEBUGGING
  7 .debug_line   000000fd  00000000  00000000  00000d4c  2**0
                  CONTENTS, READONLY, DEBUGGING
  8 .debug_str    00000173  00000000  00000000  00000e49  2**0
                  CONTENTS, READONLY, DEBUGGING

Disassembly of section .text:

00000000 <__vectors>:
   0:	82 c0       	rjmp	.+260    	; 0x106 <__ctors_end>
   2:	9c c0       	rjmp	.+312    	; 0x13c <__bad_interrupt>
   4:	9b c0       	rjmp	.+310    	; 0x13c <__bad_interrupt>
   6:	9a c0       	rjmp	.+308    	; 0x13c <__bad_interrupt>
   8:	99 c0       	rjmp	.+306    	; 0x13c <__bad_interrupt>
   a:	98 c0       	rjmp	.+304    	; 0x13c <__bad_interrupt>
   c:	97 c0       	rjmp	.+302    	; 0x13c <__bad_interrupt>
   e:	96 c0       	rjmp	.+300    	; 0x13c <__bad_interrupt>
  10:	95 c0       	rjmp	.+298    	; 0x13c <__bad_interrupt>
  12:	94 c0       	rjmp	.+296    	; 0x13c <__bad_interrupt>
  14:	93 c0       	rjmp	.+294    	; 0x13c <__bad_interrupt>
  16:	4f c1       	rjmp	.+670    	; 0x2b6 <__vector_11>
  18:	91 c0       	rjmp	.+290    	; 0x13c <__bad_interrupt>
  1a:	90 c0       	rjmp	.+288    	; 0x13c <__bad_interrupt>
  1c:	8f c0       	rjmp	.+286    	; 0x13c <__bad_interrupt>
  1e:	8e c0       	rjmp	.+284    	; 0x13c <__bad_interrupt>
  20:	8d c0       	rjmp	.+282    	; 0x13c <__bad_interrupt>

00000022 <__trampolines_end>:
  22:	0f 00       	.word	0x000f	; ????
	...
  30:	01 ff       	sbrs	r16, 1
  32:	01 00       	.word	0x0001	; ????
	...
  3c:	00 00       	nop
  3e:	0f 08       	sbc	r0, r15
  40:	00 ff       	sbrs	r16, 0
  42:	01 00       	.word	0x0001	; ????
	...
  4c:	00 0f       	add	r16, r16
  4e:	08 00       	.word	0x0008	; ????
  50:	00 ff       	sbrs	r16, 0
  52:	01 00       	.word	0x0001	; ????
	...
  5c:	0f 08       	sbc	r0, r15
  5e:	00 00       	nop
  60:	00 ff       	sbrs	r16, 0
  62:	01 00       	.word	0x0001	; ????
  64:	00 00       	nop
  66:	00 00       	nop
  68:	00 00       	nop
  6a:	00 0f       	add	r16, r16
  6c:	08 00       	.word	0x0008	; ????
  6e:	00 00       	nop
  70:	00 ff       	sbrs	r16, 0
  72:	01 00       	.word	0x0001	; ????
  74:	00 00       	nop
  76:	00 00       	nop
  78:	00 00       	nop
  7a:	0f 08       	sbc	r0, r15
  7c:	00 00       	nop
  7e:	00 00       	nop
  80:	00 ff       	sbrs	r16, 0
  82:	00 00       	nop
  84:	00 00       	nop
  86:	00 00       	nop
  88:	01 0f       	add	r16, r17
  8a:	08 00       	.word	0x0008	; ????
	...
  94:	00 00       	nop
  96:	01 ff       	sbrs	r16, 1
  98:	0f 08       	sbc	r0, r15
	...
  a2:	00 00       	nop
  a4:	01 ff       	sbrs	r16, 1
  a6:	00 0f       	add	r16, r16
  a8:	08 00       	.word	0x0008	; ????
	...
  b2:	01 ff       	sbrs	r16, 1
  b4:	00 00       	nop
  b6:	0f 08       	sbc	r0, r15
	...
  c0:	01 ff       	sbrs	r16, 1
  c2:	00 00       	nop
  c4:	00 0f       	add	r16, r16
  c6:	08 00       	.word	0x0008	; ????
  c8:	00 00       	nop
  ca:	00 00       	nop
  cc:	00 00       	nop
  ce:	01 ff       	sbrs	r16, 1
  d0:	00 00       	nop
  d2:	00 00       	nop
  d4:	0f 08       	sbc	r0, r15
  d6:	00 00       	nop
  d8:	00 00       	nop
  da:	00 00       	nop
  dc:	01 ff       	sbrs	r16, 1
  de:	00 00       	nop
  e0:	00 00       	nop
  e2:	00 0f       	add	r16, r16
  e4:	08 01       	movw	r0, r16
  e6:	00 00       	nop
  e8:	00 00       	nop
  ea:	00 ff       	sbrs	r16, 0
  ec:	00 00       	nop
  ee:	00 00       	nop
  f0:	00 00       	nop
  f2:	0f 08       	sbc	r0, r15
  f4:	0f 0f       	add	r16, r31
  f6:	0f 0f       	add	r16, r31
  f8:	0f 0f       	add	r16, r31
  fa:	0f 0f       	add	r16, r31
  fc:	0f 0f       	add	r16, r31
  fe:	0f 0f       	add	r16, r31
 100:	0f 00       	.word	0x000f	; ????
 102:	01 00       	Address 0x00000102 is out of bounds.
.word	0xffff	; ????

00000103 <anims_start>:
 103:	00 d2 00                                            ...

00000106 <__ctors_end>:
 106:	11 24       	eor	r1, r1
 108:	1f be       	out	0x3f, r1	; 63
 10a:	cf e5       	ldi	r28, 0x5F	; 95
 10c:	d1 e0       	ldi	r29, 0x01	; 1
 10e:	de bf       	out	0x3e, r29	; 62
 110:	cd bf       	out	0x3d, r28	; 61

00000112 <__do_copy_data>:
 112:	10 e0       	ldi	r17, 0x00	; 0
 114:	a0 e6       	ldi	r26, 0x60	; 96
 116:	b0 e0       	ldi	r27, 0x00	; 0
 118:	ee e2       	ldi	r30, 0x2E	; 46
 11a:	f4 e0       	ldi	r31, 0x04	; 4
 11c:	02 c0       	rjmp	.+4      	; 0x122 <__do_copy_data+0x10>
 11e:	05 90       	lpm	r0, Z+
 120:	0d 92       	st	X+, r0
 122:	a4 37       	cpi	r26, 0x74	; 116
 124:	b1 07       	cpc	r27, r17
 126:	d9 f7       	brne	.-10     	; 0x11e <__do_copy_data+0xc>

00000128 <__do_clear_bss>:
 128:	20 e0       	ldi	r18, 0x00	; 0
 12a:	a4 e7       	ldi	r26, 0x74	; 116
 12c:	b0 e0       	ldi	r27, 0x00	; 0
 12e:	01 c0       	rjmp	.+2      	; 0x132 <.do_clear_bss_start>

00000130 <.do_clear_bss_loop>:
 130:	1d 92       	st	X+, r1

00000132 <.do_clear_bss_start>:
 132:	ab 38       	cpi	r26, 0x8B	; 139
 134:	b2 07       	cpc	r27, r18
 136:	e1 f7       	brne	.-8      	; 0x130 <.do_clear_bss_loop>
 138:	91 d0       	rcall	.+290    	; 0x25c <main>
 13a:	77 c1       	rjmp	.+750    	; 0x42a <_exit>

0000013c <__bad_interrupt>:
 13c:	61 cf       	rjmp	.-318    	; 0x0 <__vectors>

0000013e <button0_proc>:
 13e:	80 91 8a 00 	lds	r24, 0x008A	; 0x80008a <button0_phase>
 142:	81 30       	cpi	r24, 0x01	; 1
 144:	69 f0       	breq	.+26     	; 0x160 <__stack+0x1>
 146:	28 f0       	brcs	.+10     	; 0x152 <button0_proc+0x14>
 148:	82 30       	cpi	r24, 0x02	; 2
 14a:	e9 f0       	breq	.+58     	; 0x186 <__stack+0x27>
 14c:	83 30       	cpi	r24, 0x03	; 3
 14e:	81 f1       	breq	.+96     	; 0x1b0 <__stack+0x51>
 150:	45 c0       	rjmp	.+138    	; 0x1dc <__stack+0x7d>
 152:	b3 99       	sbic	0x16, 3	; 22
 154:	45 c0       	rjmp	.+138    	; 0x1e0 <__stack+0x81>
 156:	8a e0       	ldi	r24, 0x0A	; 10
 158:	80 93 89 00 	sts	0x0089, r24	; 0x800089 <button0_timer>
 15c:	81 e0       	ldi	r24, 0x01	; 1
 15e:	2b c0       	rjmp	.+86     	; 0x1b6 <__stack+0x57>
 160:	b3 99       	sbic	0x16, 3	; 22
 162:	3c c0       	rjmp	.+120    	; 0x1dc <__stack+0x7d>
 164:	80 91 89 00 	lds	r24, 0x0089	; 0x800089 <button0_timer>
 168:	81 11       	cpse	r24, r1
 16a:	3a c0       	rjmp	.+116    	; 0x1e0 <__stack+0x81>
 16c:	80 91 87 00 	lds	r24, 0x0087	; 0x800087 <button0_status>
 170:	83 60       	ori	r24, 0x03	; 3
 172:	80 62       	ori	r24, 0x20	; 32
 174:	80 93 87 00 	sts	0x0087, r24	; 0x800087 <button0_status>
 178:	82 e0       	ldi	r24, 0x02	; 2
 17a:	80 93 8a 00 	sts	0x008A, r24	; 0x80008a <button0_phase>
 17e:	86 e4       	ldi	r24, 0x46	; 70
 180:	80 93 88 00 	sts	0x0088, r24	; 0x800088 <button0_longTimer>
 184:	08 95       	ret
 186:	b3 9b       	sbis	0x16, 3	; 22
 188:	05 c0       	rjmp	.+10     	; 0x194 <__stack+0x35>
 18a:	8a e0       	ldi	r24, 0x0A	; 10
 18c:	80 93 89 00 	sts	0x0089, r24	; 0x800089 <button0_timer>
 190:	83 e0       	ldi	r24, 0x03	; 3
 192:	11 c0       	rjmp	.+34     	; 0x1b6 <__stack+0x57>
 194:	80 91 88 00 	lds	r24, 0x0088	; 0x800088 <button0_longTimer>
 198:	81 11       	cpse	r24, r1
 19a:	22 c0       	rjmp	.+68     	; 0x1e0 <__stack+0x81>
 19c:	8e e1       	ldi	r24, 0x1E	; 30
 19e:	80 93 88 00 	sts	0x0088, r24	; 0x800088 <button0_longTimer>
 1a2:	80 91 87 00 	lds	r24, 0x0087	; 0x800087 <button0_status>
 1a6:	8f 7d       	andi	r24, 0xDF	; 223
 1a8:	88 60       	ori	r24, 0x08	; 8
 1aa:	80 93 87 00 	sts	0x0087, r24	; 0x800087 <button0_status>
 1ae:	08 95       	ret
 1b0:	b3 99       	sbic	0x16, 3	; 22
 1b2:	04 c0       	rjmp	.+8      	; 0x1bc <__stack+0x5d>
 1b4:	82 e0       	ldi	r24, 0x02	; 2
 1b6:	80 93 8a 00 	sts	0x008A, r24	; 0x80008a <button0_phase>
 1ba:	08 95       	ret
 1bc:	80 91 89 00 	lds	r24, 0x0089	; 0x800089 <button0_timer>
 1c0:	81 11       	cpse	r24, r1
 1c2:	0e c0       	rjmp	.+28     	; 0x1e0 <__stack+0x81>
 1c4:	80 91 87 00 	lds	r24, 0x0087	; 0x800087 <button0_status>
 1c8:	8e 7f       	andi	r24, 0xFE	; 254
 1ca:	84 60       	ori	r24, 0x04	; 4
 1cc:	85 fb       	bst	r24, 5
 1ce:	99 27       	eor	r25, r25
 1d0:	90 f9       	bld	r25, 0
 1d2:	90 fb       	bst	r25, 0
 1d4:	84 f9       	bld	r24, 4
 1d6:	8f 7d       	andi	r24, 0xDF	; 223
 1d8:	80 93 87 00 	sts	0x0087, r24	; 0x800087 <button0_status>
 1dc:	10 92 8a 00 	sts	0x008A, r1	; 0x80008a <button0_phase>
 1e0:	08 95       	ret

000001e2 <init_peripherals>:
 1e2:	83 e0       	ldi	r24, 0x03	; 3
 1e4:	87 bb       	out	0x17, r24	; 23
 1e6:	86 e0       	ldi	r24, 0x06	; 6
 1e8:	88 bb       	out	0x18, r24	; 24
 1ea:	9f ef       	ldi	r25, 0xFF	; 255
 1ec:	9a bb       	out	0x1a, r25	; 26
 1ee:	1b ba       	out	0x1b, r1	; 27
 1f0:	90 e8       	ldi	r25, 0x80	; 128
 1f2:	98 b9       	out	0x08, r25	; 8
 1f4:	81 b9       	out	0x01, r24	; 1
 1f6:	16 b8       	out	0x06, r1	; 6
 1f8:	8b e0       	ldi	r24, 0x0B	; 11
 1fa:	80 b9       	out	0x00, r24	; 0
 1fc:	10 be       	out	0x30, r1	; 48
 1fe:	84 e0       	ldi	r24, 0x04	; 4
 200:	83 bf       	out	0x33, r24	; 51
 202:	8a ef       	ldi	r24, 0xFA	; 250
 204:	82 bf       	out	0x32, r24	; 50
 206:	81 e0       	ldi	r24, 0x01	; 1
 208:	89 bf       	out	0x39, r24	; 57
 20a:	08 95       	ret

0000020c <init_main>:
 20c:	10 92 86 00 	sts	0x0086, r1	; 0x800086 <anims_start_idx+0x1>
 210:	10 92 85 00 	sts	0x0085, r1	; 0x800085 <anims_start_idx>
 214:	8f ef       	ldi	r24, 0xFF	; 255
 216:	9f ef       	ldi	r25, 0xFF	; 255
 218:	90 93 72 00 	sts	0x0072, r25	; 0x800072 <anim_idx+0x1>
 21c:	80 93 71 00 	sts	0x0071, r24	; 0x800071 <anim_idx>
 220:	e2 e6       	ldi	r30, 0x62	; 98
 222:	f0 e0       	ldi	r31, 0x00	; 0
 224:	a8 e7       	ldi	r26, 0x78	; 120
 226:	b0 e0       	ldi	r27, 0x00	; 0
 228:	11 92       	st	Z+, r1
 22a:	1d 92       	st	X+, r1
 22c:	80 e0       	ldi	r24, 0x00	; 0
 22e:	ef 36       	cpi	r30, 0x6F	; 111
 230:	f8 07       	cpc	r31, r24
 232:	d1 f7       	brne	.-12     	; 0x228 <init_main+0x1c>
 234:	81 e0       	ldi	r24, 0x01	; 1
 236:	80 93 6f 00 	sts	0x006F, r24	; 0x80006f <anim_now+0xd>
 23a:	80 93 70 00 	sts	0x0070, r24	; 0x800070 <anim_now+0xe>
 23e:	10 92 77 00 	sts	0x0077, r1	; 0x800077 <repeat_cnt>
 242:	10 92 76 00 	sts	0x0076, r1	; 0x800076 <wait_cnt>
 246:	10 92 75 00 	sts	0x0075, r1	; 0x800075 <oldal>
 24a:	10 92 74 00 	sts	0x0074, r1	; 0x800074 <__data_end>
 24e:	84 e0       	ldi	r24, 0x04	; 4
 250:	80 93 61 00 	sts	0x0061, r24	; 0x800061 <pwmcnt>
 254:	8f ef       	ldi	r24, 0xFF	; 255
 256:	80 93 60 00 	sts	0x0060, r24	; 0x800060 <__data_start>
 25a:	08 95       	ret

0000025c <main>:
 25c:	c2 df       	rcall	.-124    	; 0x1e2 <init_peripherals>
 25e:	d6 df       	rcall	.-84     	; 0x20c <init_main>
 260:	78 94       	sei
 262:	6d df       	rcall	.-294    	; 0x13e <button0_proc>
 264:	fe cf       	rjmp	.-4      	; 0x262 <main+0x6>

00000266 <get_next_animation>:
 266:	80 91 71 00 	lds	r24, 0x0071	; 0x800071 <anim_idx>
 26a:	90 91 72 00 	lds	r25, 0x0072	; 0x800072 <anim_idx+0x1>
 26e:	a2 e6       	ldi	r26, 0x62	; 98
 270:	b0 e0       	ldi	r27, 0x00	; 0
 272:	20 e0       	ldi	r18, 0x00	; 0
 274:	30 e0       	ldi	r19, 0x00	; 0
 276:	fc 01       	movw	r30, r24
 278:	e2 0f       	add	r30, r18
 27a:	f3 1f       	adc	r31, r19
 27c:	ee 5d       	subi	r30, 0xDE	; 222
 27e:	ff 4f       	sbci	r31, 0xFF	; 255
 280:	e4 91       	lpm	r30, Z
 282:	4c 91       	ld	r20, X
 284:	e4 0f       	add	r30, r20
 286:	ed 93       	st	X+, r30
 288:	2f 5f       	subi	r18, 0xFF	; 255
 28a:	3f 4f       	sbci	r19, 0xFF	; 255
 28c:	2d 30       	cpi	r18, 0x0D	; 13
 28e:	31 05       	cpc	r19, r1
 290:	91 f7       	brne	.-28     	; 0x276 <get_next_animation+0x10>
 292:	fc 01       	movw	r30, r24
 294:	e1 5d       	subi	r30, 0xD1	; 209
 296:	ff 4f       	sbci	r31, 0xFF	; 255
 298:	24 91       	lpm	r18, Z
 29a:	20 93 6f 00 	sts	0x006F, r18	; 0x80006f <anim_now+0xd>
 29e:	fc 01       	movw	r30, r24
 2a0:	e0 5d       	subi	r30, 0xD0	; 208
 2a2:	ff 4f       	sbci	r31, 0xFF	; 255
 2a4:	84 91       	lpm	r24, Z
 2a6:	80 93 70 00 	sts	0x0070, r24	; 0x800070 <anim_now+0xe>
 2aa:	21 11       	cpse	r18, r1
 2ac:	03 c0       	rjmp	.+6      	; 0x2b4 <get_next_animation+0x4e>
 2ae:	81 e0       	ldi	r24, 0x01	; 1
 2b0:	80 93 6f 00 	sts	0x006F, r24	; 0x80006f <anim_now+0xd>
 2b4:	08 95       	ret

000002b6 <__vector_11>:
 2b6:	1f 92       	push	r1
 2b8:	0f 92       	push	r0
 2ba:	0f b6       	in	r0, 0x3f	; 63
 2bc:	0f 92       	push	r0
 2be:	11 24       	eor	r1, r1
 2c0:	2f 93       	push	r18
 2c2:	3f 93       	push	r19
 2c4:	4f 93       	push	r20
 2c6:	5f 93       	push	r21
 2c8:	6f 93       	push	r22
 2ca:	7f 93       	push	r23
 2cc:	8f 93       	push	r24
 2ce:	9f 93       	push	r25
 2d0:	af 93       	push	r26
 2d2:	bf 93       	push	r27
 2d4:	ef 93       	push	r30
 2d6:	ff 93       	push	r31
 2d8:	80 91 75 00 	lds	r24, 0x0075	; 0x800075 <oldal>
 2dc:	81 11       	cpse	r24, r1
 2de:	1c c0       	rjmp	.+56     	; 0x318 <__vector_11+0x62>
 2e0:	1b ba       	out	0x1b, r1	; 27
 2e2:	81 e0       	ldi	r24, 0x01	; 1
 2e4:	80 93 75 00 	sts	0x0075, r24	; 0x800075 <oldal>
 2e8:	c0 98       	cbi	0x18, 0	; 24
 2ea:	c1 9a       	sbi	0x18, 1	; 24
 2ec:	80 91 60 00 	lds	r24, 0x0060	; 0x800060 <__data_start>
 2f0:	88 0f       	add	r24, r24
 2f2:	80 93 60 00 	sts	0x0060, r24	; 0x800060 <__data_start>
 2f6:	80 91 61 00 	lds	r24, 0x0061	; 0x800061 <pwmcnt>
 2fa:	8f 5f       	subi	r24, 0xFF	; 255
 2fc:	84 30       	cpi	r24, 0x04	; 4
 2fe:	18 f4       	brcc	.+6      	; 0x306 <__vector_11+0x50>
 300:	80 93 61 00 	sts	0x0061, r24	; 0x800061 <pwmcnt>
 304:	05 c0       	rjmp	.+10     	; 0x310 <__vector_11+0x5a>
 306:	10 92 61 00 	sts	0x0061, r1	; 0x800061 <pwmcnt>
 30a:	8f ef       	ldi	r24, 0xFF	; 255
 30c:	80 93 60 00 	sts	0x0060, r24	; 0x800060 <__data_start>
 310:	80 e0       	ldi	r24, 0x00	; 0
 312:	35 e0       	ldi	r19, 0x05	; 5
 314:	90 e0       	ldi	r25, 0x00	; 0
 316:	0f c0       	rjmp	.+30     	; 0x336 <__vector_11+0x80>
 318:	10 92 75 00 	sts	0x0075, r1	; 0x800075 <oldal>
 31c:	1b ba       	out	0x1b, r1	; 27
 31e:	c0 9a       	sbi	0x18, 0	; 24
 320:	c1 98       	cbi	0x18, 1	; 24
 322:	90 91 84 00 	lds	r25, 0x0084	; 0x800084 <anim_out+0xc>
 326:	89 2f       	mov	r24, r25
 328:	81 70       	andi	r24, 0x01	; 1
 32a:	88 0f       	add	r24, r24
 32c:	96 95       	lsr	r25
 32e:	90 93 84 00 	sts	0x0084, r25	; 0x800084 <anim_out+0xc>
 332:	3b e0       	ldi	r19, 0x0B	; 11
 334:	96 e0       	ldi	r25, 0x06	; 6
 336:	20 91 60 00 	lds	r18, 0x0060	; 0x800060 <__data_start>
 33a:	22 bf       	out	0x32, r18	; 50
 33c:	39 17       	cp	r19, r25
 33e:	68 f0       	brcs	.+26     	; 0x35a <__vector_11+0xa4>
 340:	e9 2f       	mov	r30, r25
 342:	f0 e0       	ldi	r31, 0x00	; 0
 344:	e8 58       	subi	r30, 0x88	; 136
 346:	ff 4f       	sbci	r31, 0xFF	; 255
 348:	20 81       	ld	r18, Z
 34a:	42 2f       	mov	r20, r18
 34c:	41 70       	andi	r20, 0x01	; 1
 34e:	84 2b       	or	r24, r20
 350:	88 0f       	add	r24, r24
 352:	26 95       	lsr	r18
 354:	20 83       	st	Z, r18
 356:	9f 5f       	subi	r25, 0xFF	; 255
 358:	f1 cf       	rjmp	.-30     	; 0x33c <__vector_11+0x86>
 35a:	8b bb       	out	0x1b, r24	; 27
 35c:	80 91 61 00 	lds	r24, 0x0061	; 0x800061 <pwmcnt>
 360:	83 30       	cpi	r24, 0x03	; 3
 362:	09 f0       	breq	.+2      	; 0x366 <__vector_11+0xb0>
 364:	51 c0       	rjmp	.+162    	; 0x408 <__LOCK_REGION_LENGTH__+0x8>
 366:	80 91 75 00 	lds	r24, 0x0075	; 0x800075 <oldal>
 36a:	81 11       	cpse	r24, r1
 36c:	4d c0       	rjmp	.+154    	; 0x408 <__LOCK_REGION_LENGTH__+0x8>
 36e:	80 91 76 00 	lds	r24, 0x0076	; 0x800076 <wait_cnt>
 372:	8f 5f       	subi	r24, 0xFF	; 255
 374:	80 93 76 00 	sts	0x0076, r24	; 0x800076 <wait_cnt>
 378:	90 91 70 00 	lds	r25, 0x0070	; 0x800070 <anim_now+0xe>
 37c:	89 13       	cpse	r24, r25
 37e:	38 c0       	rjmp	.+112    	; 0x3f0 <__vector_11+0x13a>
 380:	10 92 76 00 	sts	0x0076, r1	; 0x800076 <wait_cnt>
 384:	80 91 77 00 	lds	r24, 0x0077	; 0x800077 <repeat_cnt>
 388:	8f 5f       	subi	r24, 0xFF	; 255
 38a:	80 93 77 00 	sts	0x0077, r24	; 0x800077 <repeat_cnt>
 38e:	90 91 6f 00 	lds	r25, 0x006F	; 0x80006f <anim_now+0xd>
 392:	89 17       	cp	r24, r25
 394:	11 f0       	breq	.+4      	; 0x39a <__vector_11+0xe4>
 396:	67 df       	rcall	.-306    	; 0x266 <get_next_animation>
 398:	2b c0       	rjmp	.+86     	; 0x3f0 <__vector_11+0x13a>
 39a:	10 92 77 00 	sts	0x0077, r1	; 0x800077 <repeat_cnt>
 39e:	80 91 71 00 	lds	r24, 0x0071	; 0x800071 <anim_idx>
 3a2:	90 91 72 00 	lds	r25, 0x0072	; 0x800072 <anim_idx+0x1>
 3a6:	0f 96       	adiw	r24, 0x0f	; 15
 3a8:	90 93 72 00 	sts	0x0072, r25	; 0x800072 <anim_idx+0x1>
 3ac:	80 93 71 00 	sts	0x0071, r24	; 0x800071 <anim_idx>
 3b0:	e0 91 85 00 	lds	r30, 0x0085	; 0x800085 <anims_start_idx>
 3b4:	f0 91 86 00 	lds	r31, 0x0086	; 0x800086 <anims_start_idx+0x1>
 3b8:	ed 5f       	subi	r30, 0xFD	; 253
 3ba:	fe 4f       	sbci	r31, 0xFE	; 254
 3bc:	21 81       	ldd	r18, Z+1	; 0x01
 3be:	30 e0       	ldi	r19, 0x00	; 0
 3c0:	82 17       	cp	r24, r18
 3c2:	93 07       	cpc	r25, r19
 3c4:	20 f0       	brcs	.+8      	; 0x3ce <__vector_11+0x118>
 3c6:	10 92 72 00 	sts	0x0072, r1	; 0x800072 <anim_idx+0x1>
 3ca:	10 92 71 00 	sts	0x0071, r1	; 0x800071 <anim_idx>
 3ce:	e0 91 71 00 	lds	r30, 0x0071	; 0x800071 <anim_idx>
 3d2:	f0 91 72 00 	lds	r31, 0x0072	; 0x800072 <anim_idx+0x1>
 3d6:	e1 5d       	subi	r30, 0xD1	; 209
 3d8:	ff 4f       	sbci	r31, 0xFF	; 255
 3da:	e4 91       	lpm	r30, Z
 3dc:	e1 11       	cpse	r30, r1
 3de:	db cf       	rjmp	.-74     	; 0x396 <__vector_11+0xe0>
 3e0:	e2 e6       	ldi	r30, 0x62	; 98
 3e2:	f0 e0       	ldi	r31, 0x00	; 0
 3e4:	11 92       	st	Z+, r1
 3e6:	80 e0       	ldi	r24, 0x00	; 0
 3e8:	ef 36       	cpi	r30, 0x6F	; 111
 3ea:	f8 07       	cpc	r31, r24
 3ec:	d9 f7       	brne	.-10     	; 0x3e4 <__vector_11+0x12e>
 3ee:	d3 cf       	rjmp	.-90     	; 0x396 <__vector_11+0xe0>
 3f0:	10 92 78 00 	sts	0x0078, r1	; 0x800078 <anim_out>
 3f4:	e2 e6       	ldi	r30, 0x62	; 98
 3f6:	f0 e0       	ldi	r31, 0x00	; 0
 3f8:	a8 e7       	ldi	r26, 0x78	; 120
 3fa:	b0 e0       	ldi	r27, 0x00	; 0
 3fc:	81 91       	ld	r24, Z+
 3fe:	8d 93       	st	X+, r24
 400:	80 e0       	ldi	r24, 0x00	; 0
 402:	ef 36       	cpi	r30, 0x6F	; 111
 404:	f8 07       	cpc	r31, r24
 406:	d1 f7       	brne	.-12     	; 0x3fc <__vector_11+0x146>
 408:	ff 91       	pop	r31
 40a:	ef 91       	pop	r30
 40c:	bf 91       	pop	r27
 40e:	af 91       	pop	r26
 410:	9f 91       	pop	r25
 412:	8f 91       	pop	r24
 414:	7f 91       	pop	r23
 416:	6f 91       	pop	r22
 418:	5f 91       	pop	r21
 41a:	4f 91       	pop	r20
 41c:	3f 91       	pop	r19
 41e:	2f 91       	pop	r18
 420:	0f 90       	pop	r0
 422:	0f be       	out	0x3f, r0	; 63
 424:	0f 90       	pop	r0
 426:	1f 90       	pop	r1
 428:	18 95       	reti

0000042a <_exit>:
 42a:	f8 94       	cli

0000042c <__stop_program>:
 42c:	ff cf       	rjmp	.-2      	; 0x42c <__stop_program>
